target datalayout = "e-m:e-p270:32:32-p271:32:32-p272:64:64-i64:64-i128:128-f80:128-n8:16:32:64-S128"
target triple = "x86_64-pc-linux-gnu"

%struct.pm_string_t = type { ptr, i64, i32 }
%struct.pm_parser = type { i32, i32, i32, i32, i32, i32, i32, %struct.anon.5, ptr, ptr, %struct.pm_token_t, %struct.pm_token_t, ptr, ptr, %struct.pm_list_t, %struct.pm_list_t, %struct.pm_location_t, %struct.pm_list_t, %struct.pm_list_t, ptr, ptr, ptr, ptr, ptr, ptr, ptr, %struct.pm_string_t, %struct.pm_constant_pool_t, %struct.pm_newline_list_t, i16, %struct.pm_string_t, i32, ptr, ptr, i32, i8, i8, i8, i8, i8, i8, i8, i8, i8, i8, i8, i8, i8 }
%struct.anon.5 = type { ptr, [4 x %struct.pm_lex_mode], i64 }
%struct.pm_lex_mode = type { i32, %union.anon.6, ptr }
%union.anon.6 = type { %struct.anon.10 }
%struct.anon.10 = type { %struct.pm_heredoc_lex_mode_t, ptr, ptr, i8 }
%struct.pm_heredoc_lex_mode_t = type { ptr, i64, i32, i32 }
%struct.pm_token_t = type { i32, ptr, ptr }
%struct.pm_location_t = type { ptr, ptr }
%struct.pm_list_t = type { i64, ptr, ptr }
%struct.pm_constant_pool_t = type { ptr, ptr, i32, i32 }
%struct.pm_newline_list_t = type { ptr, i64, i64, ptr }
%struct.pm_buffer_t = type { i64, i64, ptr }

@rb_eNoMemError = external global i64, align 8
@.str.65 = private unnamed_addr constant [26 x i8] c"failed to allocate memory\00", align 1

; Function Attrs: nounwind sspstrong uwtable
define internal i64 @dump_input(ptr noundef %0, ptr noundef %1) #0 {
  %3 = alloca ptr, align 8
  %4 = alloca ptr, align 8
  %5 = alloca %struct.pm_buffer_t, align 8
  %6 = alloca %struct.pm_parser, align 8
  %7 = alloca ptr, align 8
  %8 = alloca i64, align 8
  store ptr %0, ptr %3, align 8, !tbaa !49
  store ptr %1, ptr %4, align 8, !tbaa !50
  call void @llvm.lifetime.start.p0(i64 24, ptr %5) #24
  %9 = call zeroext i1 @pm_buffer_init(ptr noundef %5)
  br i1 %9, label %12, label %10

10:                                               ; preds = %2
  %11 = load i64, ptr @rb_eNoMemError, align 8, !tbaa !7
  call void (i64, ptr, ...) @rb_raise(i64 noundef %11, ptr noundef @.str.65) #22
  unreachable

12:                                               ; preds = %2
  call void @llvm.lifetime.start.p0(i64 712, ptr %6) #24
  %13 = load ptr, ptr %3, align 8, !tbaa !49
  %14 = call ptr @pm_string_source(ptr noundef %13)
  %15 = load ptr, ptr %3, align 8, !tbaa !49
  %16 = call i64 @pm_string_length(ptr noundef %15)
  %17 = load ptr, ptr %4, align 8, !tbaa !50
  call void @pm_parser_init(ptr noundef %6, ptr noundef %14, i64 noundef %16, ptr noundef %17)
  call void @llvm.lifetime.start.p0(i64 8, ptr %7) #24
  %18 = call ptr @pm_parse(ptr noundef %6)
  store ptr %18, ptr %7, align 8, !tbaa !20
  %19 = load ptr, ptr %7, align 8, !tbaa !20
  call void @pm_serialize(ptr noundef %6, ptr noundef %19, ptr noundef %5)
  call void @llvm.lifetime.start.p0(i64 8, ptr %8) #24
  %20 = call ptr @pm_buffer_value(ptr noundef %5)
  %21 = call i64 @pm_buffer_length(ptr noundef %5)
  %22 = call i64 @rb_str_new(ptr noundef %20, i64 noundef %21)
  store i64 %22, ptr %8, align 8, !tbaa !7
  %23 = load ptr, ptr %7, align 8, !tbaa !20
  call void @pm_node_destroy(ptr noundef %6, ptr noundef %23)
  call void @pm_buffer_free(ptr noundef %5)
  call void @pm_parser_free(ptr noundef %6)
  %24 = load i64, ptr %8, align 8, !tbaa !7
  call void @llvm.lifetime.end.p0(i64 8, ptr %8) #24
  call void @llvm.lifetime.end.p0(i64 8, ptr %7) #24
  call void @llvm.lifetime.end.p0(i64 712, ptr %6) #24
  call void @llvm.lifetime.end.p0(i64 24, ptr %5) #24
  ret i64 %24
}