; Function Attrs: nounwind sspstrong uwtable
define internal fastcc i64 @dump_input(ptr noundef nonnull %0, ptr noundef nonnull %1) unnamed_addr #0 {
  %3 = alloca %struct.pm_buffer_t, align 8
  %4 = alloca %struct.pm_parser, align 8
  call void @llvm.lifetime.start.p0(i64 24, ptr nonnull %3) #9
  %5 = call zeroext i1 @pm_buffer_init(ptr noundef nonnull %3) #9
  br i1 %5, label %8, label %6

6:                                                ; preds = %2
  %7 = load i64, ptr @rb_eNoMemError, align 8, !tbaa !7
  call void (i64, ptr, ...) @rb_raise(i64 noundef %7, ptr noundef nonnull @.str.65) #11
  unreachable

8:                                                ; preds = %2
  call void @llvm.lifetime.start.p0(i64 712, ptr nonnull %4) #9
  %9 = call ptr @pm_string_source(ptr noundef nonnull %0) #9
  %10 = call i64 @pm_string_length(ptr noundef nonnull %0) #9
  call void @pm_parser_init(ptr noundef nonnull %4, ptr noundef %9, i64 noundef %10, ptr noundef nonnull %1) #9
  %11 = call ptr @pm_parse(ptr noundef nonnull %4) #9
  call void @pm_serialize(ptr noundef nonnull %4, ptr noundef %11, ptr noundef nonnull %3) #9
  %12 = call ptr @pm_buffer_value(ptr noundef nonnull %3) #9
  %13 = call i64 @pm_buffer_length(ptr noundef nonnull %3) #9
  %14 = call i64 @rb_str_new(ptr noundef %12, i64 noundef %13) #9
  call void @pm_node_destroy(ptr noundef nonnull %4, ptr noundef %11) #9
  call void @pm_buffer_free(ptr noundef nonnull %3) #9
  call void @pm_parser_free(ptr noundef nonnull %4) #9
  call void @llvm.lifetime.end.p0(i64 712, ptr nonnull %4) #9
  call void @llvm.lifetime.end.p0(i64 24, ptr nonnull %3) #9
  ret i64 %14
}